; ModuleID = '9/591.c'
source_filename = "9/591.c"
target datalayout = "e-m:e-p270:32:32-p271:32:32-p272:64:64-i64:64-f80:128-n8:16:32:64-S128"
target triple = "x86_64-pc-linux-gnu"

@.str = private unnamed_addr constant [3 x i8] c"%d\00", align 1
@.str.1 = private unnamed_addr constant [6 x i8] c"%s %d\00", align 1

; Function Attrs: noinline nounwind uwtable
define dso_local i32 @main() #0 {
  %1 = alloca i32, align 4
  %2 = alloca i32, align 4
  %3 = alloca i32, align 4
  %4 = alloca i32, align 4
  %5 = alloca i32, align 4
  %6 = alloca i32, align 4
  %7 = alloca i32, align 4
  %8 = alloca [10000 x i32], align 16
  %9 = alloca [10000 x [10 x i8]], align 16
  %10 = alloca [10000 x [10 x i8]], align 16
  store i32 0, i32* %1, align 4
  %11 = call i32 (i8*, ...) @__isoc99_scanf(i8* getelementptr inbounds ([3 x i8], [3 x i8]* @.str, i64 0, i64 0), i32* %2)
  store i32 0, i32* %3, align 4
  br label %12

12:                                               ; preds = %25, %0
  %13 = load i32, i32* %3, align 4
  %14 = load i32, i32* %2, align 4
  %15 = icmp slt i32 %13, %14
  br i1 %15, label %16, label %28

16:                                               ; preds = %12
  %17 = load i32, i32* %3, align 4
  %18 = sext i32 %17 to i64
  %19 = getelementptr inbounds [10000 x [10 x i8]], [10000 x [10 x i8]]* %9, i64 0, i64 %18
  %20 = getelementptr inbounds [10 x i8], [10 x i8]* %19, i64 0, i64 0
  %21 = load i32, i32* %3, align 4
  %22 = sext i32 %21 to i64
  %23 = getelementptr inbounds [10000 x i32], [10000 x i32]* %8, i64 0, i64 %22
  %24 = call i32 (i8*, ...) @__isoc99_scanf(i8* getelementptr inbounds ([6 x i8], [6 x i8]* @.str.1, i64 0, i64 0), i8* %20, i32* %23)
  br label %25

25:                                               ; preds = %16
  %26 = load i32, i32* %3, align 4
  %27 = add nsw i32 %26, 1
  store i32 %27, i32* %3, align 4
  br label %12

28:                                               ; preds = %12
  store i32 0, i32* %3, align 4
  br label %29

29:                                               ; preds = %124, %28
  %30 = load i32, i32* %3, align 4
  %31 = load i32, i32* %2, align 4
  %32 = icmp slt i32 %30, %31
  br i1 %32, label %33, label %127

33:                                               ; preds = %29
  store i32 0, i32* %6, align 4
  store i32 1, i32* %4, align 4
  br label %34

34:                                               ; preds = %59, %33
  %35 = load i32, i32* %4, align 4
  %36 = load i32, i32* %2, align 4
  %37 = load i32, i32* %3, align 4
  %38 = sub nsw i32 %36, %37
  %39 = icmp slt i32 %35, %38
  br i1 %39, label %40, label %62

40:                                               ; preds = %34
  %41 = load i32, i32* %4, align 4
  %42 = sext i32 %41 to i64
  %43 = getelementptr inbounds [10000 x i32], [10000 x i32]* %8, i64 0, i64 %42
  %44 = load i32, i32* %43, align 4
  %45 = icmp sge i32 %44, 60
  br i1 %45, label %46, label %58

46:                                               ; preds = %40
  %47 = load i32, i32* %4, align 4
  %48 = sext i32 %47 to i64
  %49 = getelementptr inbounds [10000 x i32], [10000 x i32]* %8, i64 0, i64 %48
  %50 = load i32, i32* %49, align 4
  %51 = load i32, i32* %6, align 4
  %52 = sext i32 %51 to i64
  %53 = getelementptr inbounds [10000 x i32], [10000 x i32]* %8, i64 0, i64 %52
  %54 = load i32, i32* %53, align 4
  %55 = icmp sgt i32 %50, %54
  br i1 %55, label %56, label %58

56:                                               ; preds = %46
  %57 = load i32, i32* %4, align 4
  store i32 %57, i32* %6, align 4
  br label %58

58:                                               ; preds = %56, %46, %40
  br label %59

59:                                               ; preds = %58
  %60 = load i32, i32* %4, align 4
  %61 = add nsw i32 %60, 1
  store i32 %61, i32* %4, align 4
  br label %34

62:                                               ; preds = %34
  store i32 0, i32* %4, align 4
  br label %63

63:                                               ; preds = %80, %62
  %64 = load i32, i32* %4, align 4
  %65 = icmp slt i32 %64, 10
  br i1 %65, label %66, label %83

66:                                               ; preds = %63
  %67 = load i32, i32* %6, align 4
  %68 = sext i32 %67 to i64
  %69 = getelementptr inbounds [10000 x [10 x i8]], [10000 x [10 x i8]]* %9, i64 0, i64 %68
  %70 = load i32, i32* %4, align 4
  %71 = sext i32 %70 to i64
  %72 = getelementptr inbounds [10 x i8], [10 x i8]* %69, i64 0, i64 %71
  %73 = load i8, i8* %72, align 1
  %74 = load i32, i32* %3, align 4
  %75 = sext i32 %74 to i64
  %76 = getelementptr inbounds [10000 x [10 x i8]], [10000 x [10 x i8]]* %10, i64 0, i64 %75
  %77 = load i32, i32* %4, align 4
  %78 = sext i32 %77 to i64
  %79 = getelementptr inbounds [10 x i8], [10 x i8]* %76, i64 0, i64 %78
  store i8 %73, i8* %79, align 1
  br label %80

80:                                               ; preds = %66
  %81 = load i32, i32* %4, align 4
  %82 = add nsw i32 %81, 1
  store i32 %82, i32* %4, align 4
  br label %63

83:                                               ; preds = %63
  %84 = load i32, i32* %6, align 4
  store i32 %84, i32* %4, align 4
  br label %85

85:                                               ; preds = %120, %83
  %86 = load i32, i32* %4, align 4
  %87 = load i32, i32* %2, align 4
  %88 = icmp slt i32 %86, %87
  br i1 %88, label %89, label %123

89:                                               ; preds = %85
  store i32 0, i32* %5, align 4
  br label %90

90:                                               ; preds = %108, %89
  %91 = load i32, i32* %5, align 4
  %92 = icmp slt i32 %91, 10
  br i1 %92, label %93, label %111

93:                                               ; preds = %90
  %94 = load i32, i32* %4, align 4
  %95 = add nsw i32 %94, 1
  %96 = sext i32 %95 to i64
  %97 = getelementptr inbounds [10000 x [10 x i8]], [10000 x [10 x i8]]* %9, i64 0, i64 %96
  %98 = load i32, i32* %5, align 4
  %99 = sext i32 %98 to i64
  %100 = getelementptr inbounds [10 x i8], [10 x i8]* %97, i64 0, i64 %99
  %101 = load i8, i8* %100, align 1
  %102 = load i32, i32* %4, align 4
  %103 = sext i32 %102 to i64
  %104 = getelementptr inbounds [10000 x [10 x i8]], [10000 x [10 x i8]]* %9, i64 0, i64 %103
  %105 = load i32, i32* %5, align 4
  %106 = sext i32 %105 to i64
  %107 = getelementptr inbounds [10 x i8], [10 x i8]* %104, i64 0, i64 %106
  store i8 %101, i8* %107, align 1
  br label %108

108:                                              ; preds = %93
  %109 = load i32, i32* %5, align 4
  %110 = add nsw i32 %109, 1
  store i32 %110, i32* %5, align 4
  br label %90

111:                                              ; preds = %90
  %112 = load i32, i32* %4, align 4
  %113 = add nsw i32 %112, 1
  %114 = sext i32 %113 to i64
  %115 = getelementptr inbounds [10000 x i32], [10000 x i32]* %8, i64 0, i64 %114
  %116 = load i32, i32* %115, align 4
  %117 = load i32, i32* %4, align 4
  %118 = sext i32 %117 to i64
  %119 = getelementptr inbounds [10000 x i32], [10000 x i32]* %8, i64 0, i64 %118
  store i32 %116, i32* %119, align 4
  br label %120

120:                                              ; preds = %111
  %121 = load i32, i32* %4, align 4
  %122 = add nsw i32 %121, 1
  store i32 %122, i32* %4, align 4
  br label %85

123:                                              ; preds = %85
  br label %124

124:                                              ; preds = %123
  %125 = load i32, i32* %3, align 4
  %126 = add nsw i32 %125, 1
  store i32 %126, i32* %3, align 4
  br label %29

127:                                              ; preds = %29
  store i32 0, i32* %3, align 4
  br label %128

128:                                              ; preds = %138, %127
  %129 = load i32, i32* %3, align 4
  %130 = load i32, i32* %2, align 4
  %131 = icmp slt i32 %129, %130
  br i1 %131, label %132, label %141

132:                                              ; preds = %128
  %133 = load i32, i32* %3, align 4
  %134 = sext i32 %133 to i64
  %135 = getelementptr inbounds [10000 x [10 x i8]], [10000 x [10 x i8]]* %10, i64 0, i64 %134
  %136 = getelementptr inbounds [10 x i8], [10 x i8]* %135, i64 0, i64 0
  %137 = call i32 @puts(i8* %136)
  br label %138

138:                                              ; preds = %132
  %139 = load i32, i32* %3, align 4
  %140 = add nsw i32 %139, 1
  store i32 %140, i32* %3, align 4
  br label %128

141:                                              ; preds = %128
  %142 = load i32, i32* %1, align 4
  ret i32 %142
}

declare dso_local i32 @__isoc99_scanf(i8*, ...) #1

declare dso_local i32 @puts(i8*) #1


!llvm.module.flags = !{!0}
!llvm.ident = !{!1}

!0 = !{i32 1, !"wchar_size", i32 4}
!1 = !{!"clang version 10.0.0-4ubuntu1 "}
